target datalayout = "e-m:e-p270:32:32-p271:32:32-p272:64:64-i64:64-i128:128-f80:128-n8:16:32:64-S128"
target triple = "x86_64-pc-linux-gnu"

%struct._zval_struct = type { %union._zend_value, %union.anon, %union.anon.2 }
%union._zend_value = type { i64 }
%union.anon = type { i32 }
%union.anon.2 = type { i32 }
%struct._zend_refcounted_h = type { i32, %union.anon.3 }
%union.anon.3 = type { i32 }
%struct.php_sxe_object = type { ptr, ptr, ptr, ptr, %struct.anon.8, %struct._zval_struct, ptr, %struct._zend_object }
%struct.anon.8 = type { ptr, ptr, i32, i32, %struct._zval_struct }
%struct._zend_object = type { %struct._zend_refcounted_h, i32, ptr, ptr, ptr, [1 x %struct._zval_struct] }
%struct._php_libxml_node_ptr = type { ptr, i32, ptr }
%struct._xmlNode = type { ptr, i32, ptr, ptr, ptr, ptr, ptr, ptr, ptr, ptr, ptr, ptr, ptr, ptr, i16, i16 }
%struct.php_sxe_iterator = type { %struct._zend_object_iterator, ptr }
%struct._zend_object_iterator = type { %struct._zend_object, %struct._zval_struct, ptr, i64 }

@.str.1 = private unnamed_addr constant [45 x i8] c"SimpleXMLElement is not properly initialized\00", align 1

; Function Attrs: nounwind uwtable
define internal ptr @php_sxe_reset_iterator_no_clear_iter_data(ptr noundef %0, i32 noundef %1) #0 {
  %3 = alloca ptr, align 8
  %4 = alloca ptr, align 8
  %5 = alloca i32, align 4
  %6 = alloca ptr, align 8
  store ptr %0, ptr %4, align 8
  store i32 %1, ptr %5, align 4
  %7 = load ptr, ptr %4, align 8
  %8 = getelementptr inbounds %struct.php_sxe_object, ptr %7, i32 0, i32 0
  %9 = load ptr, ptr %8, align 8
  %10 = icmp ne ptr %9, null
  br i1 %10, label %11, label %24

11:                                               ; preds = %2
  %12 = load ptr, ptr %4, align 8
  %13 = getelementptr inbounds %struct.php_sxe_object, ptr %12, i32 0, i32 0
  %14 = load ptr, ptr %13, align 8
  %15 = getelementptr inbounds %struct._php_libxml_node_ptr, ptr %14, i32 0, i32 0
  %16 = load ptr, ptr %15, align 8
  %17 = icmp ne ptr %16, null
  br i1 %17, label %18, label %24

18:                                               ; preds = %11
  %19 = load ptr, ptr %4, align 8
  %20 = getelementptr inbounds %struct.php_sxe_object, ptr %19, i32 0, i32 0
  %21 = load ptr, ptr %20, align 8
  %22 = getelementptr inbounds %struct._php_libxml_node_ptr, ptr %21, i32 0, i32 0
  %23 = load ptr, ptr %22, align 8
  store ptr %23, ptr %6, align 8
  br label %25

24:                                               ; preds = %11, %2
  store ptr null, ptr %6, align 8
  call void (ptr, ptr, ...) @zend_throw_error(ptr noundef null, ptr noundef @.str.1)
  br label %25

25:                                               ; preds = %24, %18
  %26 = load ptr, ptr %6, align 8
  %27 = icmp ne ptr %26, null
  br i1 %27, label %28, label %50

28:                                               ; preds = %25
  %29 = load ptr, ptr %4, align 8
  %30 = getelementptr inbounds %struct.php_sxe_object, ptr %29, i32 0, i32 4
  %31 = getelementptr inbounds %struct.anon.8, ptr %30, i32 0, i32 3
  %32 = load i32, ptr %31, align 4
  switch i32 %32, label %41 [
    i32 1, label %33
    i32 2, label %33
    i32 0, label %33
    i32 3, label %37
  ]

33:                                               ; preds = %28, %28, %28
  %34 = load ptr, ptr %6, align 8
  %35 = getelementptr inbounds %struct._xmlNode, ptr %34, i32 0, i32 3
  %36 = load ptr, ptr %35, align 8
  store ptr %36, ptr %6, align 8
  br label %41

37:                                               ; preds = %28
  %38 = load ptr, ptr %6, align 8
  %39 = getelementptr inbounds %struct._xmlNode, ptr %38, i32 0, i32 11
  %40 = load ptr, ptr %39, align 8
  store ptr %40, ptr %6, align 8
  br label %41

41:                                               ; preds = %37, %33, %28
  %42 = load i32, ptr %5, align 4
  %43 = icmp ne i32 %42, 0
  br i1 %43, label %44, label %45

44:                                               ; preds = %41
  br label %45

45:                                               ; preds = %44, %41
  %46 = load ptr, ptr %4, align 8
  %47 = load ptr, ptr %6, align 8
  %48 = load i32, ptr %5, align 4
  %49 = call ptr @php_sxe_iterator_fetch(ptr noundef %46, ptr noundef %47, i32 noundef %48)
  store ptr %49, ptr %3, align 8
  br label %51

50:                                               ; preds = %25
  store ptr null, ptr %3, align 8
  br label %51

51:                                               ; preds = %50, %45
  %52 = load ptr, ptr %3, align 8
  ret ptr %52
}

; Function Attrs: nounwind uwtable
define internal ptr @php_sxe_reset_iterator(ptr noundef %0, i32 noundef %1) #0 {
  %3 = alloca ptr, align 8
  %4 = alloca ptr, align 8
  %5 = alloca i32, align 4
  store ptr %0, ptr %4, align 8
  store i32 %1, ptr %5, align 4
  %6 = load ptr, ptr %4, align 8
  %7 = getelementptr inbounds %struct.php_sxe_object, ptr %6, i32 0, i32 4
  %8 = getelementptr inbounds %struct.anon.8, ptr %7, i32 0, i32 4
  store ptr %8, ptr %3, align 8
  %9 = load ptr, ptr %3, align 8
  %10 = getelementptr inbounds %struct._zval_struct, ptr %9, i32 0, i32 1
  %11 = load i8, ptr %10, align 8
  %12 = zext i8 %11 to i32
  %13 = icmp eq i32 %12, 0
  br i1 %13, label %24, label %14

14:                                               ; preds = %2
  %15 = load ptr, ptr %4, align 8
  %16 = getelementptr inbounds %struct.php_sxe_object, ptr %15, i32 0, i32 4
  %17 = getelementptr inbounds %struct.anon.8, ptr %16, i32 0, i32 4
  call void @zval_ptr_dtor(ptr noundef %17)
  br label %18

18:                                               ; preds = %14
  %19 = load ptr, ptr %4, align 8
  %20 = getelementptr inbounds %struct.php_sxe_object, ptr %19, i32 0, i32 4
  %21 = getelementptr inbounds %struct.anon.8, ptr %20, i32 0, i32 4
  %22 = getelementptr inbounds %struct._zval_struct, ptr %21, i32 0, i32 1
  store i32 0, ptr %22, align 8
  br label %23

23:                                               ; preds = %18
  br label %24

24:                                               ; preds = %23, %2
  %25 = load ptr, ptr %4, align 8
  %26 = load i32, ptr %5, align 4
  %27 = call ptr @php_sxe_reset_iterator_no_clear_iter_data(ptr noundef %25, i32 noundef %26)
  ret ptr %27
}

; Function Attrs: nounwind uwtable
define internal void @php_sxe_iterator_rewind(ptr noundef %0) #0 {
  %2 = alloca ptr, align 8
  %3 = alloca ptr, align 8
  %4 = alloca ptr, align 8
  store ptr %0, ptr %2, align 8
  %5 = load ptr, ptr %2, align 8
  store ptr %5, ptr %4, align 8
  %6 = load ptr, ptr %4, align 8
  %7 = getelementptr inbounds %struct.php_sxe_iterator, ptr %6, i32 0, i32 1
  %8 = load ptr, ptr %7, align 8
  store ptr %8, ptr %3, align 8
  %9 = load ptr, ptr %3, align 8
  %10 = call ptr @php_sxe_reset_iterator(ptr noundef %9, i32 noundef 1)
  ret void
}