; Function Attrs: nounwind uwtable
define internal void @php_sxe_iterator_rewind(ptr nocapture noundef readonly %0) #1 {
  %2 = getelementptr inbounds i8, ptr %0, i64 88
  %3 = load ptr, ptr %2, align 8
  %4 = getelementptr inbounds i8, ptr %3, i64 64
  %5 = load i8, ptr %4, align 8
  %6 = icmp eq i8 %5, 0
  br i1 %6, label %9, label %7

7:                                                ; preds = %1
  %8 = getelementptr inbounds i8, ptr %3, i64 56
  tail call void @zval_ptr_dtor(ptr noundef nonnull %8) #14
  store i32 0, ptr %4, align 8
  br label %9

9:                                                ; preds = %7, %1
  %10 = load ptr, ptr %3, align 8
  %.not.i.i = icmp eq ptr %10, null
  br i1 %.not.i.i, label %.thread.i.i, label %11

11:                                               ; preds = %9
  %12 = load ptr, ptr %10, align 8
  %.not14.i.i = icmp eq ptr %12, null
  br i1 %.not14.i.i, label %.thread.i.i, label %13

.thread.i.i:                                      ; preds = %11, %9
  tail call void (ptr, ptr, ...) @zend_throw_error(ptr noundef null, ptr noundef nonnull @.str.1) #14
  br label %php_sxe_reset_iterator.exit

13:                                               ; preds = %11
  %14 = getelementptr inbounds i8, ptr %3, i64 52
  %15 = load i32, ptr %14, align 4
  %16 = icmp ult i32 %15, 4
  br i1 %16, label %switch.lookup, label %20

switch.lookup:                                    ; preds = %13
  %17 = zext nneg i32 %15 to i64
  %switch.gep = getelementptr inbounds [4 x i64], ptr @switch.table.php_sxe_iterator_rewind, i64 0, i64 %17
  %switch.load = load i64, ptr %switch.gep, align 8
  %18 = getelementptr inbounds i8, ptr %12, i64 %switch.load
  %19 = load ptr, ptr %18, align 8
  br label %20

20:                                               ; preds = %13, %switch.lookup
  %.1.i.i = phi ptr [ %12, %13 ], [ %19, %switch.lookup ]
  %21 = tail call fastcc ptr @php_sxe_iterator_fetch(ptr noundef nonnull %3, ptr noundef %.1.i.i, i32 noundef 1)
  br label %php_sxe_reset_iterator.exit

php_sxe_reset_iterator.exit:                      ; preds = %.thread.i.i, %20
  ret void
}